; Function Attrs: null_pointer_is_valid sspstrong uwtable
define void @oid_both_from_string(ptr noundef %0, ptr noundef %1, ptr noundef writeonly captures(none) initializes((0, 8)) %2, ptr noundef writeonly captures(none) %3) local_unnamed_addr #0 {
  %5 = alloca ptr, align 8
  call void @llvm.lifetime.start.p0(i64 8, ptr nonnull %5) #10
  %6 = call i32 @oid_string2subid(ptr noundef null, ptr noundef %1, ptr noundef nonnull %5)
  %7 = load ptr, ptr %5, align 8
  %8 = tail call ptr @oid_resolved(ptr noundef %0, i32 noundef %6, ptr noundef %7)
  store ptr %8, ptr %2, align 8
  %9 = icmp eq ptr %7, null
  %10 = icmp eq i32 %6, 0
  %or.cond.i.i = or i1 %10, %9
  br i1 %or.cond.i.i, label %11, label %13

11:                                               ; preds = %4
  %12 = tail call noalias ptr @wmem_strdup(ptr noundef %0, ptr noundef nonnull @.str.16)
  br label %oid_subid2string.exit

13:                                               ; preds = %4
  %14 = tail call noalias ptr @wmem_strbuf_new(ptr noundef %0, ptr noundef nonnull @.str.17)
  br label %15

15:                                               ; preds = %15, %13
  %.015.i.i = phi i32 [ %6, %13 ], [ %18, %15 ]
  %.014.i.i = phi ptr [ %7, %13 ], [ %16, %15 ]
  %16 = getelementptr i8, ptr %.014.i.i, i64 4
  %17 = load i32, ptr %.014.i.i, align 4
  tail call void (ptr, ptr, ...) @wmem_strbuf_append_printf(ptr noundef %14, ptr noundef nonnull @.str.18, i32 noundef %17)
  %18 = add i32 %.015.i.i, -1
  %.not.i.i = icmp eq i32 %18, 0
  br i1 %.not.i.i, label %19, label %15, !llvm.loop !6

19:                                               ; preds = %15
  %20 = tail call i64 @wmem_strbuf_get_len(ptr noundef %14)
  %21 = add i64 %20, -1
  tail call void @wmem_strbuf_truncate(ptr noundef %14, i64 noundef %21)
  %22 = tail call ptr @wmem_strbuf_finalize(ptr noundef %14)
  br label %oid_subid2string.exit

oid_subid2string.exit:                            ; preds = %11, %19
  %.0.i.i = phi ptr [ %12, %11 ], [ %22, %19 ]
  store ptr %.0.i.i, ptr %3, align 8
  tail call void @wmem_free(ptr noundef null, ptr noundef %7)
  call void @llvm.lifetime.end.p0(i64 8, ptr nonnull %5) #10
  ret void
}